target datalayout = "e-m:e-p270:32:32-p271:32:32-p272:64:64-i64:64-i128:128-f80:128-n8:16:32:64-S128"
target triple = "x86_64-pc-linux-gnu"

%struct.aeEventLoop = type { i32, i32, i64, i32, ptr, ptr, ptr, i32, ptr, ptr, ptr, i32, [2 x ptr] }
%struct.aeFileEvent = type { i32, ptr, ptr, ptr }

; Function Attrs: nounwind uwtable
define dso_local i32 @aeGetFileEvents(ptr noundef %0, i32 noundef %1) #0 {
  %3 = alloca i32, align 4
  %4 = alloca ptr, align 8
  %5 = alloca i32, align 4
  %6 = alloca ptr, align 8
  store ptr %0, ptr %4, align 8, !tbaa !9
  store i32 %1, ptr %5, align 4, !tbaa !5
  %7 = load i32, ptr %5, align 4, !tbaa !5
  %8 = load ptr, ptr %4, align 8, !tbaa !9
  %9 = getelementptr inbounds nuw %struct.aeEventLoop, ptr %8, i32 0, i32 1
  %10 = load i32, ptr %9, align 4, !tbaa !20
  %11 = icmp sge i32 %7, %10
  br i1 %11, label %12, label %13

12:                                               ; preds = %2
  store i32 0, ptr %3, align 4
  br label %23

13:                                               ; preds = %2
  call void @llvm.lifetime.start.p0(i64 8, ptr %6) #10
  %14 = load ptr, ptr %4, align 8, !tbaa !9
  %15 = getelementptr inbounds nuw %struct.aeEventLoop, ptr %14, i32 0, i32 4
  %16 = load ptr, ptr %15, align 8, !tbaa !18
  %17 = load i32, ptr %5, align 4, !tbaa !5
  %18 = sext i32 %17 to i64
  %19 = getelementptr inbounds %struct.aeFileEvent, ptr %16, i64 %18
  store ptr %19, ptr %6, align 8, !tbaa !48
  %20 = load ptr, ptr %6, align 8, !tbaa !48
  %21 = getelementptr inbounds nuw %struct.aeFileEvent, ptr %20, i32 0, i32 0
  %22 = load i32, ptr %21, align 8, !tbaa !28
  store i32 %22, ptr %3, align 4
  call void @llvm.lifetime.end.p0(i64 8, ptr %6) #10
  br label %23

23:                                               ; preds = %13, %12
  %24 = load i32, ptr %3, align 4
  ret i32 %24
}