; Function Attrs: mustprogress nofree norecurse nosync nounwind willreturn memory(read, inaccessiblemem: none) uwtable
define dso_local i32 @aeGetFileEvents(ptr noundef readonly captures(none) %0, i32 noundef %1) local_unnamed_addr #10 {
  %3 = getelementptr inbounds nuw i8, ptr %0, i64 4
  %4 = load i32, ptr %3, align 4, !tbaa !17
  %.not = icmp slt i32 %1, %4
  br i1 %.not, label %5, label %11

5:                                                ; preds = %2
  %6 = getelementptr inbounds nuw i8, ptr %0, i64 24
  %7 = load ptr, ptr %6, align 8, !tbaa !15
  %8 = sext i32 %1 to i64
  %9 = getelementptr inbounds %struct.aeFileEvent, ptr %7, i64 %8
  %10 = load i32, ptr %9, align 8, !tbaa !27
  br label %11

11:                                               ; preds = %2, %5
  %.0 = phi i32 [ %10, %5 ], [ 0, %2 ]
  ret i32 %.0
}